; Function Attrs: mustprogress nounwind uwtable
define void @_ZN5faiss11Index2LayerD2Ev(ptr noundef nonnull align 8 dereferenceable(384) initializes((0, 8), (152, 160)) %0) unnamed_addr #0 align 2 personality ptr @__gxx_personality_v0 {
  store ptr getelementptr inbounds nuw inrange(-16, 192) (i8, ptr @_ZTVN5faiss11Index2LayerE, i64 16), ptr %0, align 8, !tbaa !41
  %2 = getelementptr inbounds nuw i8, ptr %0, i64 152
  store ptr getelementptr inbounds nuw inrange(-16, 40) (i8, ptr @_ZTVN5faiss16ProductQuantizerE, i64 16), ptr %2, align 8, !tbaa !41
  %3 = getelementptr inbounds nuw i8, ptr %0, i64 344
  %4 = load ptr, ptr %3, align 8, !tbaa !68
  %.not.i.i.i.i = icmp eq ptr %4, null
  br i1 %.not.i.i.i.i, label %_ZNSt6vectorIfSaIfEED2Ev.exit.i, label %5

5:                                                ; preds = %1
  %6 = getelementptr inbounds nuw i8, ptr %0, i64 360
  %7 = load ptr, ptr %6, align 8, !tbaa !69
  %8 = ptrtoint ptr %7 to i64
  %9 = ptrtoint ptr %4 to i64
  %10 = sub i64 %8, %9
  tail call void @_ZdlPvm(ptr noundef nonnull %4, i64 noundef %10) #22
  br label %_ZNSt6vectorIfSaIfEED2Ev.exit.i

_ZNSt6vectorIfSaIfEED2Ev.exit.i:                  ; preds = %5, %1
  %11 = getelementptr inbounds nuw i8, ptr %0, i64 320
  %12 = load ptr, ptr %11, align 8, !tbaa !68
  %.not.i.i.i1.i = icmp eq ptr %12, null
  br i1 %.not.i.i.i1.i, label %_ZNSt6vectorIfSaIfEED2Ev.exit2.i, label %13

13:                                               ; preds = %_ZNSt6vectorIfSaIfEED2Ev.exit.i
  %14 = getelementptr inbounds nuw i8, ptr %0, i64 336
  %15 = load ptr, ptr %14, align 8, !tbaa !69
  %16 = ptrtoint ptr %15 to i64
  %17 = ptrtoint ptr %12 to i64
  %18 = sub i64 %16, %17
  tail call void @_ZdlPvm(ptr noundef nonnull %12, i64 noundef %18) #22
  br label %_ZNSt6vectorIfSaIfEED2Ev.exit2.i

_ZNSt6vectorIfSaIfEED2Ev.exit2.i:                 ; preds = %13, %_ZNSt6vectorIfSaIfEED2Ev.exit.i
  %19 = getelementptr inbounds nuw i8, ptr %0, i64 296
  %20 = load ptr, ptr %19, align 8, !tbaa !68
  %.not.i.i.i3.i = icmp eq ptr %20, null
  br i1 %.not.i.i.i3.i, label %_ZNSt6vectorIfSaIfEED2Ev.exit4.i, label %21

21:                                               ; preds = %_ZNSt6vectorIfSaIfEED2Ev.exit2.i
  %22 = getelementptr inbounds nuw i8, ptr %0, i64 312
  %23 = load ptr, ptr %22, align 8, !tbaa !69
  %24 = ptrtoint ptr %23 to i64
  %25 = ptrtoint ptr %20 to i64
  %26 = sub i64 %24, %25
  tail call void @_ZdlPvm(ptr noundef nonnull %20, i64 noundef %26) #22
  br label %_ZNSt6vectorIfSaIfEED2Ev.exit4.i

_ZNSt6vectorIfSaIfEED2Ev.exit4.i:                 ; preds = %21, %_ZNSt6vectorIfSaIfEED2Ev.exit2.i
  %27 = getelementptr inbounds nuw i8, ptr %0, i64 272
  %28 = load ptr, ptr %27, align 8, !tbaa !68
  %.not.i.i.i5.i = icmp eq ptr %28, null
  br i1 %.not.i.i.i5.i, label %_ZN5faiss16ProductQuantizerD2Ev.exit, label %29

29:                                               ; preds = %_ZNSt6vectorIfSaIfEED2Ev.exit4.i
  %30 = getelementptr inbounds nuw i8, ptr %0, i64 288
  %31 = load ptr, ptr %30, align 8, !tbaa !69
  %32 = ptrtoint ptr %31 to i64
  %33 = ptrtoint ptr %28 to i64
  %34 = sub i64 %32, %33
  tail call void @_ZdlPvm(ptr noundef nonnull %28, i64 noundef %34) #22
  br label %_ZN5faiss16ProductQuantizerD2Ev.exit

_ZN5faiss16ProductQuantizerD2Ev.exit:             ; preds = %_ZNSt6vectorIfSaIfEED2Ev.exit4.i, %29
  %35 = getelementptr inbounds nuw i8, ptr %0, i64 72
  tail call void @_ZN5faiss15Level1QuantizerD1Ev(ptr noundef nonnull align 8 dereferenceable(80) %35) #16
  store ptr getelementptr inbounds nuw inrange(-16, 192) (i8, ptr @_ZTVN5faiss14IndexFlatCodesE, i64 16), ptr %0, align 8, !tbaa !41
  %36 = getelementptr inbounds nuw i8, ptr %0, i64 48
  %37 = load ptr, ptr %36, align 8, !tbaa !66
  %.not.i.i.i.i1 = icmp eq ptr %37, null
  br i1 %.not.i.i.i.i1, label %_ZN5faiss14IndexFlatCodesD2Ev.exit, label %38

38:                                               ; preds = %_ZN5faiss16ProductQuantizerD2Ev.exit
  %39 = getelementptr inbounds nuw i8, ptr %0, i64 64
  %40 = load ptr, ptr %39, align 8, !tbaa !67
  %41 = ptrtoint ptr %40 to i64
  %42 = ptrtoint ptr %37 to i64
  %43 = sub i64 %41, %42
  tail call void @_ZdlPvm(ptr noundef nonnull %37, i64 noundef %43) #22
  br label %_ZN5faiss14IndexFlatCodesD2Ev.exit

_ZN5faiss14IndexFlatCodesD2Ev.exit:               ; preds = %_ZN5faiss16ProductQuantizerD2Ev.exit, %38
  tail call void @_ZN5faiss5IndexD2Ev(ptr noundef nonnull align 8 dereferenceable(72) %0) #16
  ret void
}